target datalayout = "e-m:e-p270:32:32-p271:32:32-p272:64:64-i64:64-i128:128-f80:128-n8:16:32:64-S128"
target triple = "x86_64-unknown-linux-gnu"

@.str = private unnamed_addr constant [27 x i8] c"../qemu/net/colo-compare.c\00", align 1
@.str.15 = private unnamed_addr constant [43 x i8] c"Property '%s.%s' requires a positive value\00", align 1
@max_queue_size = internal global i32 0, align 4
@__func__.set_max_queue_size = private unnamed_addr constant [19 x i8] c"set_max_queue_size\00", align 1

; Function Attrs: nounwind sspstrong uwtable
define internal void @set_max_queue_size(ptr noundef %obj, ptr noundef %v, ptr noundef %name, ptr noundef %opaque, ptr noundef %errp) #0 {
entry:
  %obj.addr = alloca ptr, align 8
  %v.addr = alloca ptr, align 8
  %name.addr = alloca ptr, align 8
  %opaque.addr = alloca ptr, align 8
  %errp.addr = alloca ptr, align 8
  %value = alloca i64, align 8
  store ptr %obj, ptr %obj.addr, align 8
  store ptr %v, ptr %v.addr, align 8
  store ptr %name, ptr %name.addr, align 8
  store ptr %opaque, ptr %opaque.addr, align 8
  store ptr %errp, ptr %errp.addr, align 8
  %0 = load ptr, ptr %v.addr, align 8
  %1 = load ptr, ptr %name.addr, align 8
  %2 = load ptr, ptr %errp.addr, align 8
  %call = call zeroext i1 @visit_type_uint64(ptr noundef %0, ptr noundef %1, ptr noundef %value, ptr noundef %2)
  br i1 %call, label %if.end, label %if.then

if.then:                                          ; preds = %entry
  br label %return

if.end:                                           ; preds = %entry
  %3 = load i64, ptr %value, align 8
  %tobool = icmp ne i64 %3, 0
  br i1 %tobool, label %if.end3, label %if.then1

if.then1:                                         ; preds = %if.end
  %4 = load ptr, ptr %errp.addr, align 8
  %5 = load ptr, ptr %obj.addr, align 8
  %call2 = call ptr @object_get_typename(ptr noundef %5)
  %6 = load ptr, ptr %name.addr, align 8
  call void (ptr, ptr, i32, ptr, ptr, ...) @error_setg_internal(ptr noundef %4, ptr noundef @.str, i32 noundef 1145, ptr noundef @__func__.set_max_queue_size, ptr noundef @.str.15, ptr noundef %call2, ptr noundef %6)
  br label %return

if.end3:                                          ; preds = %if.end
  %7 = load i64, ptr %value, align 8
  %conv = trunc i64 %7 to i32
  store i32 %conv, ptr @max_queue_size, align 4
  br label %return

return:                                           ; preds = %if.end3, %if.then1, %if.then
  ret void
}