; Function Attrs: nounwind sspstrong uwtable
define internal void @set_max_queue_size(ptr noundef %obj, ptr noundef %v, ptr noundef %name, ptr readnone captures(none) %opaque, ptr noundef %errp) #0 {
entry:
  %value = alloca i64, align 8
  %call = call zeroext i1 @visit_type_uint64(ptr noundef %v, ptr noundef %name, ptr noundef nonnull %value, ptr noundef %errp) #16
  br i1 %call, label %if.end, label %return

if.end:                                           ; preds = %entry
  %0 = load i64, ptr %value, align 8
  %tobool.not = icmp eq i64 %0, 0
  br i1 %tobool.not, label %if.then1, label %if.end3

if.then1:                                         ; preds = %if.end
  %call2 = call ptr @object_get_typename(ptr noundef %obj) #16
  call void (ptr, ptr, i32, ptr, ptr, ...) @error_setg_internal(ptr noundef %errp, ptr noundef nonnull @.str, i32 noundef 1145, ptr noundef nonnull @__func__.set_max_queue_size, ptr noundef nonnull @.str.15, ptr noundef %call2, ptr noundef %name) #16
  br label %return

if.end3:                                          ; preds = %if.end
  %conv = trunc i64 %0 to i32
  store i32 %conv, ptr @max_queue_size, align 4
  br label %return

return:                                           ; preds = %entry, %if.end3, %if.then1
  ret void
}